ARM GAS  C:\Users\binhp\AppData\Local\Temp\ccx8bkq5.s 			page 1


   1              		.cpu cortex-m3
   2              		.arch armv7-m
   3              		.fpu softvfp
   4              		.eabi_attribute 20, 1
   5              		.eabi_attribute 21, 1
   6              		.eabi_attribute 23, 3
   7              		.eabi_attribute 24, 1
   8              		.eabi_attribute 25, 1
   9              		.eabi_attribute 26, 1
  10              		.eabi_attribute 30, 1
  11              		.eabi_attribute 34, 1
  12              		.eabi_attribute 18, 4
  13              		.file	"checksum.c"
  14              		.text
  15              	.Ltext0:
  16              		.cfi_sections	.debug_frame
  17              		.file 1 "Core/Src/checksum.c"
  18              		.section	.text.check_cs,"ax",%progbits
  19              		.align	1
  20              		.global	check_cs
  21              		.syntax unified
  22              		.thumb
  23              		.thumb_func
  25              	check_cs:
  26              	.LVL0:
  27              	.LFB68:
   1:Core/Src/checksum.c **** #include "checksum.h"
   2:Core/Src/checksum.c **** #include "stdio.h"
   3:Core/Src/checksum.c **** 
   4:Core/Src/checksum.c **** /**
   5:Core/Src/checksum.c ****  * Checksum algorithm
   6:Core/Src/checksum.c ****  * @param cs reference checksum
   7:Core/Src/checksum.c ****  * @param len data length
   8:Core/Src/checksum.c ****  * @return true if varification complete, false otherwise
   9:Core/Src/checksum.c ****  */
  10:Core/Src/checksum.c **** bool check_cs(uint8_t *data, uint8_t ref_cs, uint8_t len) {
  28              		.loc 1 10 59 view -0
  29              		.cfi_startproc
  30              		@ args = 0, pretend = 0, frame = 0
  31              		@ frame_needed = 0, uses_anonymous_args = 0
  11:Core/Src/checksum.c ****   // combine all data
  12:Core/Src/checksum.c ****   int total_cs = 0;
  32              		.loc 1 12 3 view .LVU1
  13:Core/Src/checksum.c ****   for (uint8_t i = 0; i < len; i++) {
  33              		.loc 1 13 3 view .LVU2
  34              	.LBB2:
  35              		.loc 1 13 8 view .LVU3
  36              		.loc 1 13 16 is_stmt 0 view .LVU4
  37 0000 0023     		movs	r3, #0
  38              	.LBE2:
  12:Core/Src/checksum.c ****   for (uint8_t i = 0; i < len; i++) {
  39              		.loc 1 12 7 view .LVU5
  40 0002 9C46     		mov	ip, r3
  41              	.LVL1:
  42              	.LBB3:
  43              		.loc 1 13 25 is_stmt 1 discriminator 1 view .LVU6
  44 0004 9342     		cmp	r3, r2
ARM GAS  C:\Users\binhp\AppData\Local\Temp\ccx8bkq5.s 			page 2


  45 0006 12D2     		bcs	.L13
  46              	.LBE3:
  10:Core/Src/checksum.c ****   // combine all data
  47              		.loc 1 10 59 is_stmt 0 view .LVU7
  48 0008 00B5     		push	{lr}
  49              	.LCFI0:
  50              		.cfi_def_cfa_offset 4
  51              		.cfi_offset 14, -4
  52              	.LVL2:
  53              	.L3:
  54              	.LBB4:
  14:Core/Src/checksum.c ****     total_cs += data[i];
  55              		.loc 1 14 5 is_stmt 1 view .LVU8
  56              		.loc 1 14 21 is_stmt 0 view .LVU9
  57 000a 10F803E0 		ldrb	lr, [r0, r3]	@ zero_extendqisi2
  58              		.loc 1 14 14 view .LVU10
  59 000e F444     		add	ip, ip, lr
  60              	.LVL3:
  13:Core/Src/checksum.c ****     total_cs += data[i];
  61              		.loc 1 13 33 is_stmt 1 discriminator 3 view .LVU11
  62 0010 0133     		adds	r3, r3, #1
  63              	.LVL4:
  13:Core/Src/checksum.c ****     total_cs += data[i];
  64              		.loc 1 13 33 is_stmt 0 discriminator 3 view .LVU12
  65 0012 DBB2     		uxtb	r3, r3
  66              	.LVL5:
  13:Core/Src/checksum.c ****     total_cs += data[i];
  67              		.loc 1 13 25 is_stmt 1 discriminator 1 view .LVU13
  68 0014 9342     		cmp	r3, r2
  69 0016 F8D3     		bcc	.L3
  70              	.LBE4:
  15:Core/Src/checksum.c ****   }
  16:Core/Src/checksum.c **** 
  17:Core/Src/checksum.c ****   uint8_t calc_cs = (256 - (total_cs & 0xFF)) & 0xFF;
  71              		.loc 1 17 3 view .LVU14
  72              		.loc 1 17 11 is_stmt 0 view .LVU15
  73 0018 CCF1000C 		rsb	ip, ip, #0
  74              	.LVL6:
  75              		.loc 1 17 11 view .LVU16
  76 001c 5FFA8CFC 		uxtb	ip, ip
  77              	.LVL7:
  18:Core/Src/checksum.c ****   // compare with received checksums
  19:Core/Src/checksum.c ****   if (calc_cs == ref_cs)
  78              		.loc 1 19 3 is_stmt 1 view .LVU17
  79              		.loc 1 19 6 is_stmt 0 view .LVU18
  80 0020 8C45     		cmp	ip, r1
  81 0022 02D0     		beq	.L14
  20:Core/Src/checksum.c ****     return true;
  21:Core/Src/checksum.c ****   else
  22:Core/Src/checksum.c ****     return false;
  82              		.loc 1 22 12 view .LVU19
  83 0024 0020     		movs	r0, #0
  84              	.LVL8:
  85              	.L4:
  23:Core/Src/checksum.c **** }...
  86              		.loc 1 23 1 view .LVU20
  87 0026 5DF804FB 		ldr	pc, [sp], #4
ARM GAS  C:\Users\binhp\AppData\Local\Temp\ccx8bkq5.s 			page 3


  88              	.LVL9:
  89              	.L14:
  20:Core/Src/checksum.c ****     return true;
  90              		.loc 1 20 12 view .LVU21
  91 002a 0120     		movs	r0, #1
  92              	.LVL10:
  20:Core/Src/checksum.c ****     return true;
  93              		.loc 1 20 12 view .LVU22
  94 002c FBE7     		b	.L4
  95              	.LVL11:
  96              	.L13:
  97              	.LCFI1:
  98              		.cfi_def_cfa_offset 0
  99              		.cfi_restore 14
  17:Core/Src/checksum.c ****   uint8_t calc_cs = (256 - (total_cs & 0xFF)) & 0xFF;
 100              		.loc 1 17 3 is_stmt 1 view .LVU23
  17:Core/Src/checksum.c ****   uint8_t calc_cs = (256 - (total_cs & 0xFF)) & 0xFF;
 101              		.loc 1 17 11 is_stmt 0 view .LVU24
 102 002e C3F1000C 		rsb	ip, r3, #0
 103 0032 5FFA8CFC 		uxtb	ip, ip
 104              	.LVL12:
  19:Core/Src/checksum.c ****   if (calc_cs == ref_cs)
 105              		.loc 1 19 3 is_stmt 1 view .LVU25
  19:Core/Src/checksum.c ****   if (calc_cs == ref_cs)
 106              		.loc 1 19 6 is_stmt 0 view .LVU26
 107 0036 8C45     		cmp	ip, r1
 108 0038 01D0     		beq	.L15
  22:Core/Src/checksum.c ****     return false;
 109              		.loc 1 22 12 view .LVU27
 110 003a 0020     		movs	r0, #0
 111              	.LVL13:
 112              		.loc 1 23 1 view .LVU28
 113 003c 7047     		bx	lr
 114              	.LVL14:
 115              	.L15:
  20:Core/Src/checksum.c ****     return true;
 116              		.loc 1 20 12 view .LVU29
 117 003e 0120     		movs	r0, #1
 118              	.LVL15:
  20:Core/Src/checksum.c ****     return true;
 119              		.loc 1 20 12 view .LVU30
 120 0040 7047     		bx	lr
 121              		.cfi_endproc
 122              	.LFE68:
 124              		.text
 125              	.Letext0:
 126              		.file 2 "C:/msys64/mingw64/arm-none-eabi/include/machine/_default_types.h"
 127              		.file 3 "C:/msys64/mingw64/arm-none-eabi/include/sys/_stdint.h"
ARM GAS  C:\Users\binhp\AppData\Local\Temp\ccx8bkq5.s 			page 4


DEFINED SYMBOLS
                            *ABS*:00000000 checksum.c
C:\Users\binhp\AppData\Local\Temp\ccx8bkq5.s:19     .text.check_cs:00000000 $t
C:\Users\binhp\AppData\Local\Temp\ccx8bkq5.s:25     .text.check_cs:00000000 check_cs
                           .group:00000000 wm4.0.82cd861fcffc377458525806b973ac66
                           .group:00000000 wm4.stm32f1xx_hal_conf.h.22.cbdc1b1d5adafd94f8d8dcf6c1f3e8fc
                           .group:00000000 wm4.stm32f1xx.h.38.e862c4e1b39ca120fca296a79f75a275
                           .group:00000000 wm4.stm32f103xb.h.37.7c5fb130aa158ead5441dda9799c1941
                           .group:00000000 wm4._newlib_version.h.4.411db44ea2338a62eca2f0777f81481b
                           .group:00000000 wm4.features.h.33.2eefb68b261e70563a8ac654e712169f
                           .group:00000000 wm4._default_types.h.15.247e5cd201eca3442cbf5404108c4935
                           .group:00000000 wm4._intsup.h.10.48bafbb683905c4daa4565a85aeeb264
                           .group:00000000 wm4._stdint.h.10.c24fa3af3bc1706662bb5593a907e841
                           .group:00000000 wm4.stdint.h.23.d53047a68f4a85177f80b422d52785ed
                           .group:00000000 wm4.cmsis_version.h.32.4d5822004c01a829a975260e854b5f8e
                           .group:00000000 wm4.core_cm3.h.66.fc46cac19810db8f98d67da7ef88f42c
                           .group:00000000 wm4.cmsis_gcc.h.26.4f5798e999d5690b80e6ded3ecc94b37
                           .group:00000000 wm4.core_cm3.h.127.f4474120f1a7524deb56f9d74ff175da
                           .group:00000000 wm4.stm32f103xb.h.572.e8b8d889d857e2c56f82ca03c5328917
                           .group:00000000 wm4.stm32f1xx.h.161.0d1b9fd26c53008e1116394047fa1b84
                           .group:00000000 wm4.stm32_hal_legacy.h.22.d050171c85a9d8567d1f9a012537baa2
                           .group:00000000 wm4.stddef.h.39.0dc9006b34572d4d9cae4c8b422c4971
                           .group:00000000 wm4.stm32f1xx_hal_def.h.56.354d0a4bf0f6ef7af10e3429b7628481
                           .group:00000000 wm4.stm32f1xx_hal_rcc.h.93.3fadb58bdef0723b74d9eb798753b168
                           .group:00000000 wm4.stm32f1xx_hal_rcc_ex.h.20.5a464c1dc9022dc2a67fe45b2054f77c
                           .group:00000000 wm4.stm32f1xx_hal_rcc.h.1200.d6cbb5717f01cee373a6e1fba84d9163
                           .group:00000000 wm4.stm32f1xx_hal_gpio.h.21.0099da253a68660e916195d3e8928be3
                           .group:00000000 wm4.stm32f1xx_hal_gpio_ex.h.21.93f1f3ec7660fa76375def81b976f73c
                           .group:00000000 wm4.stm32f1xx_hal_gpio.h.262.7df79220ec7519ba80c1763e6b4854a6
                           .group:00000000 wm4.stm32f1xx_hal_exti.h.21.a7f1b393a0c9b2b56b72ccdbb8dee508
                           .group:00000000 wm4.stm32f1xx_hal_dma.h.21.11e5a204ed6aa790b1cdae2e4192bc9d
                           .group:00000000 wm4.stm32f1xx_hal_dma_ex.h.21.d438f745b4c04dc23f9f569190526864
                           .group:00000000 wm4.stm32f1xx_hal_dma.h.408.14794a3f8621230c9ac7fca0cacf3e57
                           .group:00000000 wm4.stm32f1xx_hal_cortex.h.21.6ab92041a8778f53d2d2d96b3825535a
                           .group:00000000 wm4.stm32f1xx_hal_flash.h.20.2db7f614c43999568df8c1bd8d5f2459
                           .group:00000000 wm4.stm32f1xx_hal_flash_ex.h.20.c1d01fb364bcc8befd238a2d45469cc1
                           .group:00000000 wm4.stm32f1xx_hal_i2c.h.21.6a947c870feb456d84d10dd871ee01bd
                           .group:00000000 wm4.stm32f1xx_hal_pwr.h.21.ec3e2cfd4c26fffa32fc4ff0a8ac7390
                           .group:00000000 wm4.stm32f1xx_hal_uart.h.21.96146ab5759dfe03d0cc100d79254944
                           .group:00000000 wm4.stm32f1xx_hal.h.87.60093b86a987865736d7cddecce3c235
                           .group:00000000 wm4.stdbool.h.29.c08aa3eec75cf5b9b5003883f43253f0
                           .group:00000000 wm4.newlib.h.7.a37ffbe9e5aff74303f4e60b1cc1c01b
                           .group:00000000 wm4.ieeefp.h.77.fbf6f2f498a71d39a0aaf172d6680419
                           .group:00000000 wm4.config.h.224.10ee1ad185d877c6e334e6581faab44d
                           .group:00000000 wm4._ansi.h.31.de524f58584151836e90d8620a16f8e8
                           .group:00000000 wm4.stdio.h.31.7c0e28c411445f3f9c5b11accf882760
                           .group:00000000 wm4.stddef.h.158.eec8bf00b5213f43d095cb984c5f22e3
                           .group:00000000 wm4.cdefs.h.49.70fc7af612f78ddcace70fdd90b5623b
                           .group:00000000 wm4.stdarg.h.34.3a23a216c0c293b3d2ea2e89281481e6
                           .group:00000000 wm4._types.h.20.dd0d04dca3800a0d2a6129b87f3adbb2
                           .group:00000000 wm4.stddef.h.158.6f8e08a347b1cff664332fa350bfceb3
                           .group:00000000 wm4._types.h.127.3bdfe3ff8ea2d0985b03d9cbe93480e3
                           .group:00000000 wm4.reent.h.18.25503cdc8b7e55dd0d6ea7b3e5af7a03
                           .group:00000000 wm4.lock.h.2.1461d1fff82dffe8bfddc23307f6484f
                           .group:00000000 wm4.reent.h.78.7f0775353a33c852a1479c008f68cd03
                           .group:00000000 wm4.stdio.h.67.0cf8a9c281ab0b348aef5c02e7e48825
                           .group:00000000 wm4.stdio.h.2.4aa87247282eca6c8f36f9de33d8df1a
ARM GAS  C:\Users\binhp\AppData\Local\Temp\ccx8bkq5.s 			page 5


                           .group:00000000 wm4.stdio.h.87.a1e20d2651f9bfb66e51bfbe849db00a

NO UNDEFINED SYMBOLS
