ARM GAS  C:\Users\binhp\AppData\Local\Temp\ccB6ZBp5.s 			page 1


   1              		.cpu cortex-m3
   2              		.arch armv7-m
   3              		.fpu softvfp
   4              		.eabi_attribute 20, 1
   5              		.eabi_attribute 21, 1
   6              		.eabi_attribute 23, 3
   7              		.eabi_attribute 24, 1
   8              		.eabi_attribute 25, 1
   9              		.eabi_attribute 26, 1
  10              		.eabi_attribute 30, 1
  11              		.eabi_attribute 34, 1
  12              		.eabi_attribute 18, 4
  13              		.file	"util.c"
  14              		.text
  15              	.Ltext0:
  16              		.cfi_sections	.debug_frame
  17              		.file 1 "Core/Src/util.c"
  18              		.section	.text.CalcCrc32,"ax",%progbits
  19              		.align	1
  20              		.global	CalcCrc32
  21              		.syntax unified
  22              		.thumb
  23              		.thumb_func
  25              	CalcCrc32:
  26              	.LVL0:
  27              	.LFB3:
   1:Core/Src/util.c **** /**
   2:Core/Src/util.c ****   ******************************************************************************
   3:Core/Src/util.c ****   * @file    crc.c
   4:Core/Src/util.c ****   * @author  VCD
   5:Core/Src/util.c ****   * @brief   source file to compute CRC using software
   6:Core/Src/util.c ****   * @date    Nov 30 2023
   7:Core/Src/util.c ****   ******************************************************************************
   8:Core/Src/util.c ****   * @attention
   9:Core/Src/util.c ****   *
  10:Core/Src/util.c ****   * Copyright (c) 2023 Austin Circuit Design.
  11:Core/Src/util.c ****   * All rights reserved.
  12:Core/Src/util.c ****   ******************************************************************************
  13:Core/Src/util.c ****   */
  14:Core/Src/util.c **** #include "util.h"
  15:Core/Src/util.c **** #include "stdio.h"
  16:Core/Src/util.c **** 
  17:Core/Src/util.c **** static const uint32_t crc32Table[256] =
  18:Core/Src/util.c **** {
  19:Core/Src/util.c ****   0x00000000U, 0x77073096U, 0xEE0E612CU, 0x990951BAU,
  20:Core/Src/util.c ****   0x076DC419U, 0x706AF48FU, 0xE963A535U, 0x9E6495A3U,
  21:Core/Src/util.c ****   0x0EDB8832U, 0x79DCB8A4U, 0xE0D5E91EU, 0x97D2D988U,
  22:Core/Src/util.c ****   0x09B64C2BU, 0x7EB17CBDU, 0xE7B82D07U, 0x90BF1D91U,
  23:Core/Src/util.c ****   0x1DB71064U, 0x6AB020F2U, 0xF3B97148U, 0x84BE41DEU,
  24:Core/Src/util.c ****   0x1ADAD47DU, 0x6DDDE4EBU, 0xF4D4B551U, 0x83D385C7U,
  25:Core/Src/util.c ****   0x136C9856U, 0x646BA8C0U, 0xFD62F97AU, 0x8A65C9ECU,
  26:Core/Src/util.c ****   0x14015C4FU, 0x63066CD9U, 0xFA0F3D63U, 0x8D080DF5U,
  27:Core/Src/util.c ****   0x3B6E20C8U, 0x4C69105EU, 0xD56041E4U, 0xA2677172U,
  28:Core/Src/util.c ****   0x3C03E4D1U, 0x4B04D447U, 0xD20D85FDU, 0xA50AB56BU,
  29:Core/Src/util.c ****   0x35B5A8FAU, 0x42B2986CU, 0xDBBBC9D6U, 0xACBCF940U,
  30:Core/Src/util.c ****   0x32D86CE3U, 0x45DF5C75U, 0xDCD60DCFU, 0xABD13D59U,
  31:Core/Src/util.c ****   0x26D930ACU, 0x51DE003AU, 0xC8D75180U, 0xBFD06116U,
ARM GAS  C:\Users\binhp\AppData\Local\Temp\ccB6ZBp5.s 			page 2


  32:Core/Src/util.c ****   0x21B4F4B5U, 0x56B3C423U, 0xCFBA9599U, 0xB8BDA50FU,
  33:Core/Src/util.c ****   0x2802B89EU, 0x5F058808U, 0xC60CD9B2U, 0xB10BE924U,
  34:Core/Src/util.c ****   0x2F6F7C87U, 0x58684C11U, 0xC1611DABU, 0xB6662D3DU,
  35:Core/Src/util.c ****   0x76DC4190U, 0x01DB7106U, 0x98D220BCU, 0xEFD5102AU,
  36:Core/Src/util.c ****   0x71B18589U, 0x06B6B51FU, 0x9FBFE4A5U, 0xE8B8D433U,
  37:Core/Src/util.c ****   0x7807C9A2U, 0x0F00F934U, 0x9609A88EU, 0xE10E9818U,
  38:Core/Src/util.c ****   0x7F6A0DBBU, 0x086D3D2DU, 0x91646C97U, 0xE6635C01U,
  39:Core/Src/util.c ****   0x6B6B51F4U, 0x1C6C6162U, 0x856530D8U, 0xF262004EU,
  40:Core/Src/util.c ****   0x6C0695EDU, 0x1B01A57BU, 0x8208F4C1U, 0xF50FC457U,
  41:Core/Src/util.c ****   0x65B0D9C6U, 0x12B7E950U, 0x8BBEB8EAU, 0xFCB9887CU,
  42:Core/Src/util.c ****   0x62DD1DDFU, 0x15DA2D49U, 0x8CD37CF3U, 0xFBD44C65U,
  43:Core/Src/util.c ****   0x4DB26158U, 0x3AB551CEU, 0xA3BC0074U, 0xD4BB30E2U,
  44:Core/Src/util.c ****   0x4ADFA541U, 0x3DD895D7U, 0xA4D1C46DU, 0xD3D6F4FBU,
  45:Core/Src/util.c ****   0x4369E96AU, 0x346ED9FCU, 0xAD678846U, 0xDA60B8D0U,
  46:Core/Src/util.c ****   0x44042D73U, 0x33031DE5U, 0xAA0A4C5FU, 0xDD0D7CC9U,
  47:Core/Src/util.c ****   0x5005713CU, 0x270241AAU, 0xBE0B1010U, 0xC90C2086U,
  48:Core/Src/util.c ****   0x5768B525U, 0x206F85B3U, 0xB966D409U, 0xCE61E49FU,
  49:Core/Src/util.c ****   0x5EDEF90EU, 0x29D9C998U, 0xB0D09822U, 0xC7D7A8B4U,
  50:Core/Src/util.c ****   0x59B33D17U, 0x2EB40D81U, 0xB7BD5C3BU, 0xC0BA6CADU,
  51:Core/Src/util.c ****   0xEDB88320U, 0x9ABFB3B6U, 0x03B6E20CU, 0x74B1D29AU,
  52:Core/Src/util.c ****   0xEAD54739U, 0x9DD277AFU, 0x04DB2615U, 0x73DC1683U,
  53:Core/Src/util.c ****   0xE3630B12U, 0x94643B84U, 0x0D6D6A3EU, 0x7A6A5AA8U,
  54:Core/Src/util.c ****   0xE40ECF0BU, 0x9309FF9DU, 0x0A00AE27U, 0x7D079EB1U,
  55:Core/Src/util.c ****   0xF00F9344U, 0x8708A3D2U, 0x1E01F268U, 0x6906C2FEU,
  56:Core/Src/util.c ****   0xF762575DU, 0x806567CBU, 0x196C3671U, 0x6E6B06E7U,
  57:Core/Src/util.c ****   0xFED41B76U, 0x89D32BE0U, 0x10DA7A5AU, 0x67DD4ACCU,
  58:Core/Src/util.c ****   0xF9B9DF6FU, 0x8EBEEFF9U, 0x17B7BE43U, 0x60B08ED5U,
  59:Core/Src/util.c ****   0xD6D6A3E8U, 0xA1D1937EU, 0x38D8C2C4U, 0x4FDFF252U,
  60:Core/Src/util.c ****   0xD1BB67F1U, 0xA6BC5767U, 0x3FB506DDU, 0x48B2364BU,
  61:Core/Src/util.c ****   0xD80D2BDAU, 0xAF0A1B4CU, 0x36034AF6U, 0x41047A60U,
  62:Core/Src/util.c ****   0xDF60EFC3U, 0xA867DF55U, 0x316E8EEFU, 0x4669BE79U,
  63:Core/Src/util.c ****   0xCB61B38CU, 0xBC66831AU, 0x256FD2A0U, 0x5268E236U,
  64:Core/Src/util.c ****   0xCC0C7795U, 0xBB0B4703U, 0x220216B9U, 0x5505262FU,
  65:Core/Src/util.c ****   0xC5BA3BBEU, 0xB2BD0B28U, 0x2BB45A92U, 0x5CB36A04U,
  66:Core/Src/util.c ****   0xC2D7FFA7U, 0xB5D0CF31U, 0x2CD99E8BU, 0x5BDEAE1DU,
  67:Core/Src/util.c ****   0x9B64C2B0U, 0xEC63F226U, 0x756AA39CU, 0x026D930AU,
  68:Core/Src/util.c ****   0x9C0906A9U, 0xEB0E363FU, 0x72076785U, 0x05005713U,
  69:Core/Src/util.c ****   0x95BF4A82U, 0xE2B87A14U, 0x7BB12BAEU, 0x0CB61B38U,
  70:Core/Src/util.c ****   0x92D28E9BU, 0xE5D5BE0DU, 0x7CDCEFB7U, 0x0BDBDF21U,
  71:Core/Src/util.c ****   0x86D3D2D4U, 0xF1D4E242U, 0x68DDB3F8U, 0x1FDA836EU,
  72:Core/Src/util.c ****   0x81BE16CDU, 0xF6B9265BU, 0x6FB077E1U, 0x18B74777U,
  73:Core/Src/util.c ****   0x88085AE6U, 0xFF0F6A70U, 0x66063BCAU, 0x11010B5CU,
  74:Core/Src/util.c ****   0x8F659EFFU, 0xF862AE69U, 0x616BFFD3U, 0x166CCF45U,
  75:Core/Src/util.c ****   0xA00AE278U, 0xD70DD2EEU, 0x4E048354U, 0x3903B3C2U,
  76:Core/Src/util.c ****   0xA7672661U, 0xD06016F7U, 0x4969474DU, 0x3E6E77DBU,
  77:Core/Src/util.c ****   0xAED16A4AU, 0xD9D65ADCU, 0x40DF0B66U, 0x37D83BF0U,
  78:Core/Src/util.c ****   0xA9BCAE53U, 0xDEBB9EC5U, 0x47B2CF7FU, 0x30B5FFE9U,
  79:Core/Src/util.c ****   0xBDBDF21CU, 0xCABAC28AU, 0x53B39330U, 0x24B4A3A6U,
  80:Core/Src/util.c ****   0xBAD03605U, 0xCDD70693U, 0x54DE5729U, 0x23D967BFU,
  81:Core/Src/util.c ****   0xB3667A2EU, 0xC4614AB8U, 0x5D681B02U, 0x2A6F2B94U,
  82:Core/Src/util.c ****   0xB40BBE37U, 0xC30C8EA1U, 0x5A05DF1BU, 0x2D02EF8DU
  83:Core/Src/util.c **** };
  84:Core/Src/util.c **** 
  85:Core/Src/util.c **** 
  86:Core/Src/util.c **** /*************************************************************************************************/
  87:Core/Src/util.c **** /*!
  88:Core/Src/util.c ****  *  \fn     CalcCrc32
ARM GAS  C:\Users\binhp\AppData\Local\Temp\ccB6ZBp5.s 			page 3


  89:Core/Src/util.c ****  *
  90:Core/Src/util.c ****  *  \brief  Calculate the CRC-32 of the given buffer.
  91:Core/Src/util.c ****  *
  92:Core/Src/util.c ****  *  \param  crcInit  Initial value of the CRC.
  93:Core/Src/util.c ****  *  \param  len      Length of the buffer.
  94:Core/Src/util.c ****  *  \param  pBuf     Buffer to compute the CRC.
  95:Core/Src/util.c ****  *
  96:Core/Src/util.c ****  *  \return None.
  97:Core/Src/util.c ****  *
  98:Core/Src/util.c ****  *  This routine was originally generated with crcmod.py using the following parameters:
  99:Core/Src/util.c ****  *    - polynomial 0x04C11DB7
 100:Core/Src/util.c ****  *    - bit reverse algorithm
 101:Core/Src/util.c ****  */
 102:Core/Src/util.c **** /*************************************************************************************************/
 103:Core/Src/util.c **** 
 104:Core/Src/util.c **** 
 105:Core/Src/util.c **** uint32_t CalcCrc32(uint32_t crcInit, uint32_t len, uint8_t *pBuf)
 106:Core/Src/util.c **** {
  28              		.loc 1 106 1 view -0
  29              		.cfi_startproc
  30              		@ args = 0, pretend = 0, frame = 0
  31              		@ frame_needed = 0, uses_anonymous_args = 0
  32              		@ link register save eliminated.
 107:Core/Src/util.c ****   uint32_t crc = ~crcInit;
  33              		.loc 1 107 3 view .LVU1
  34              		.loc 1 107 12 is_stmt 0 view .LVU2
  35 0000 C043     		mvns	r0, r0
  36              	.LVL1:
 108:Core/Src/util.c **** 
 109:Core/Src/util.c ****   while (len > 0)
  37              		.loc 1 109 3 is_stmt 1 view .LVU3
  38              		.loc 1 109 14 view .LVU4
  39 0002 79B1     		cbz	r1, .L8
 106:Core/Src/util.c ****   uint32_t crc = ~crcInit;
  40              		.loc 1 106 1 is_stmt 0 view .LVU5
  41 0004 10B4     		push	{r4}
  42              	.LCFI0:
  43              		.cfi_def_cfa_offset 4
  44              		.cfi_offset 4, -4
  45              	.LVL2:
  46              	.L3:
 110:Core/Src/util.c ****   {
 111:Core/Src/util.c ****     crc = crc32Table[*pBuf ^ (uint8_t)crc] ^ (crc >> 8);
  47              		.loc 1 111 5 is_stmt 1 view .LVU6
  48              		.loc 1 111 22 is_stmt 0 view .LVU7
  49 0006 12F8013B 		ldrb	r3, [r2], #1	@ zero_extendqisi2
  50              	.LVL3:
  51              		.loc 1 111 30 view .LVU8
  52 000a C4B2     		uxtb	r4, r0
  53              		.loc 1 111 28 view .LVU9
  54 000c 6340     		eors	r3, r3, r4
  55              		.loc 1 111 21 view .LVU10
  56 000e 064C     		ldr	r4, .L9
  57 0010 54F82330 		ldr	r3, [r4, r3, lsl #2]
  58              		.loc 1 111 9 view .LVU11
  59 0014 83EA1020 		eor	r0, r3, r0, lsr #8
  60              	.LVL4:
ARM GAS  C:\Users\binhp\AppData\Local\Temp\ccB6ZBp5.s 			page 4


 112:Core/Src/util.c ****     pBuf++;
  61              		.loc 1 112 5 is_stmt 1 view .LVU12
 113:Core/Src/util.c ****     len--;
  62              		.loc 1 113 5 view .LVU13
  63              		.loc 1 113 8 is_stmt 0 view .LVU14
  64 0018 0139     		subs	r1, r1, #1
  65              	.LVL5:
 109:Core/Src/util.c ****   {
  66              		.loc 1 109 14 is_stmt 1 view .LVU15
  67 001a 0029     		cmp	r1, #0
  68 001c F3D1     		bne	.L3
 114:Core/Src/util.c ****   }
 115:Core/Src/util.c **** 
 116:Core/Src/util.c ****   crc = crc ^ 0xFFFFFFFFU;
  69              		.loc 1 116 3 view .LVU16
  70              	.LVL6:
 117:Core/Src/util.c **** 
 118:Core/Src/util.c ****   return crc;
  71              		.loc 1 118 3 view .LVU17
 119:Core/Src/util.c **** }
  72              		.loc 1 119 1 is_stmt 0 view .LVU18
  73 001e C043     		mvns	r0, r0
  74              	.LVL7:
  75              		.loc 1 119 1 view .LVU19
  76 0020 10BC     		pop	{r4}
  77              	.LCFI1:
  78              		.cfi_restore 4
  79              		.cfi_def_cfa_offset 0
  80 0022 7047     		bx	lr
  81              	.L8:
 116:Core/Src/util.c **** 
  82              		.loc 1 116 3 is_stmt 1 view .LVU20
  83              	.LVL8:
 118:Core/Src/util.c **** }
  84              		.loc 1 118 3 view .LVU21
  85              		.loc 1 119 1 is_stmt 0 view .LVU22
  86 0024 C043     		mvns	r0, r0
  87              	.LVL9:
  88              		.loc 1 119 1 view .LVU23
  89 0026 7047     		bx	lr
  90              	.L10:
  91              		.align	2
  92              	.L9:
  93 0028 00000000 		.word	crc32Table
  94              		.cfi_endproc
  95              	.LFE3:
  97              		.section	.rodata.crc32Table,"a"
  98              		.align	2
 101              	crc32Table:
 102 0000 00000000 		.word	0
 103 0004 96300777 		.word	1996959894
 104 0008 2C610EEE 		.word	-301047508
 105 000c BA510999 		.word	-1727442502
 106 0010 19C46D07 		.word	124634137
 107 0014 8FF46A70 		.word	1886057615
 108 0018 35A563E9 		.word	-379345611
 109 001c A395649E 		.word	-1637575261
ARM GAS  C:\Users\binhp\AppData\Local\Temp\ccB6ZBp5.s 			page 5


 110 0020 3288DB0E 		.word	249268274
 111 0024 A4B8DC79 		.word	2044508324
 112 0028 1EE9D5E0 		.word	-522852066
 113 002c 88D9D297 		.word	-1747789432
 114 0030 2B4CB609 		.word	162941995
 115 0034 BD7CB17E 		.word	2125561021
 116 0038 072DB8E7 		.word	-407360249
 117 003c 911DBF90 		.word	-1866523247
 118 0040 6410B71D 		.word	498536548
 119 0044 F220B06A 		.word	1789927666
 120 0048 4871B9F3 		.word	-205950648
 121 004c DE41BE84 		.word	-2067906082
 122 0050 7DD4DA1A 		.word	450548861
 123 0054 EBE4DD6D 		.word	1843258603
 124 0058 51B5D4F4 		.word	-187386543
 125 005c C785D383 		.word	-2083289657
 126 0060 56986C13 		.word	325883990
 127 0064 C0A86B64 		.word	1684777152
 128 0068 7AF962FD 		.word	-43845254
 129 006c ECC9658A 		.word	-1973040660
 130 0070 4F5C0114 		.word	335633487
 131 0074 D96C0663 		.word	1661365465
 132 0078 633D0FFA 		.word	-99664541
 133 007c F50D088D 		.word	-1928851979
 134 0080 C8206E3B 		.word	997073096
 135 0084 5E10694C 		.word	1281953886
 136 0088 E44160D5 		.word	-715111964
 137 008c 727167A2 		.word	-1570279054
 138 0090 D1E4033C 		.word	1006888145
 139 0094 47D4044B 		.word	1258607687
 140 0098 FD850DD2 		.word	-770865667
 141 009c 6BB50AA5 		.word	-1526024853
 142 00a0 FAA8B535 		.word	901097722
 143 00a4 6C98B242 		.word	1119000684
 144 00a8 D6C9BBDB 		.word	-608450090
 145 00ac 40F9BCAC 		.word	-1396901568
 146 00b0 E36CD832 		.word	853044451
 147 00b4 755CDF45 		.word	1172266101
 148 00b8 CF0DD6DC 		.word	-589951537
 149 00bc 593DD1AB 		.word	-1412350631
 150 00c0 AC30D926 		.word	651767980
 151 00c4 3A00DE51 		.word	1373503546
 152 00c8 8051D7C8 		.word	-925412992
 153 00cc 1661D0BF 		.word	-1076862698
 154 00d0 B5F4B421 		.word	565507253
 155 00d4 23C4B356 		.word	1454621731
 156 00d8 9995BACF 		.word	-809855591
 157 00dc 0FA5BDB8 		.word	-1195530993
 158 00e0 9EB80228 		.word	671266974
 159 00e4 0888055F 		.word	1594198024
 160 00e8 B2D90CC6 		.word	-972236366
 161 00ec 24E90BB1 		.word	-1324619484
 162 00f0 877C6F2F 		.word	795835527
 163 00f4 114C6858 		.word	1483230225
 164 00f8 AB1D61C1 		.word	-1050600021
 165 00fc 3D2D66B6 		.word	-1234817731
 166 0100 9041DC76 		.word	1994146192
ARM GAS  C:\Users\binhp\AppData\Local\Temp\ccB6ZBp5.s 			page 6


 167 0104 0671DB01 		.word	31158534
 168 0108 BC20D298 		.word	-1731059524
 169 010c 2A10D5EF 		.word	-271249366
 170 0110 8985B171 		.word	1907459465
 171 0114 1FB5B606 		.word	112637215
 172 0118 A5E4BF9F 		.word	-1614814043
 173 011c 33D4B8E8 		.word	-390540237
 174 0120 A2C90778 		.word	2013776290
 175 0124 34F9000F 		.word	251722036
 176 0128 8EA80996 		.word	-1777751922
 177 012c 18980EE1 		.word	-519137256
 178 0130 BB0D6A7F 		.word	2137656763
 179 0134 2D3D6D08 		.word	141376813
 180 0138 976C6491 		.word	-1855689577
 181 013c 015C63E6 		.word	-429695999
 182 0140 F4516B6B 		.word	1802195444
 183 0144 62616C1C 		.word	476864866
 184 0148 D8306585 		.word	-2056965928
 185 014c 4E0062F2 		.word	-228458418
 186 0150 ED95066C 		.word	1812370925
 187 0154 7BA5011B 		.word	453092731
 188 0158 C1F40882 		.word	-2113342271
 189 015c 57C40FF5 		.word	-183516073
 190 0160 C6D9B065 		.word	1706088902
 191 0164 50E9B712 		.word	314042704
 192 0168 EAB8BE8B 		.word	-1950435094
 193 016c 7C88B9FC 		.word	-54949764
 194 0170 DF1DDD62 		.word	1658658271
 195 0174 492DDA15 		.word	366619977
 196 0178 F37CD38C 		.word	-1932296973
 197 017c 654CD4FB 		.word	-69972891
 198 0180 5861B24D 		.word	1303535960
 199 0184 CE51B53A 		.word	984961486
 200 0188 7400BCA3 		.word	-1547960204
 201 018c E230BBD4 		.word	-725929758
 202 0190 41A5DF4A 		.word	1256170817
 203 0194 D795D83D 		.word	1037604311
 204 0198 6DC4D1A4 		.word	-1529756563
 205 019c FBF4D6D3 		.word	-740887301
 206 01a0 6AE96943 		.word	1131014506
 207 01a4 FCD96E34 		.word	879679996
 208 01a8 468867AD 		.word	-1385723834
 209 01ac D0B860DA 		.word	-631195440
 210 01b0 732D0444 		.word	1141124467
 211 01b4 E51D0333 		.word	855842277
 212 01b8 5F4C0AAA 		.word	-1442165665
 213 01bc C97C0DDD 		.word	-586318647
 214 01c0 3C710550 		.word	1342533948
 215 01c4 AA410227 		.word	654459306
 216 01c8 10100BBE 		.word	-1106571248
 217 01cc 86200CC9 		.word	-921952122
 218 01d0 25B56857 		.word	1466479909
 219 01d4 B3856F20 		.word	544179635
 220 01d8 09D466B9 		.word	-1184443383
 221 01dc 9FE461CE 		.word	-832445281
 222 01e0 0EF9DE5E 		.word	1591671054
 223 01e4 98C9D929 		.word	702138776
ARM GAS  C:\Users\binhp\AppData\Local\Temp\ccB6ZBp5.s 			page 7


 224 01e8 2298D0B0 		.word	-1328506846
 225 01ec B4A8D7C7 		.word	-942167884
 226 01f0 173DB359 		.word	1504918807
 227 01f4 810DB42E 		.word	783551873
 228 01f8 3B5CBDB7 		.word	-1212326853
 229 01fc AD6CBAC0 		.word	-1061524307
 230 0200 2083B8ED 		.word	-306674912
 231 0204 B6B3BF9A 		.word	-1698712650
 232 0208 0CE2B603 		.word	62317068
 233 020c 9AD2B174 		.word	1957810842
 234 0210 3947D5EA 		.word	-355121351
 235 0214 AF77D29D 		.word	-1647151185
 236 0218 1526DB04 		.word	81470997
 237 021c 8316DC73 		.word	1943803523
 238 0220 120B63E3 		.word	-480048366
 239 0224 843B6494 		.word	-1805370492
 240 0228 3E6A6D0D 		.word	225274430
 241 022c A85A6A7A 		.word	2053790376
 242 0230 0BCF0EE4 		.word	-468791541
 243 0234 9DFF0993 		.word	-1828061283
 244 0238 27AE000A 		.word	167816743
 245 023c B19E077D 		.word	2097651377
 246 0240 44930FF0 		.word	-267414716
 247 0244 D2A30887 		.word	-2029476910
 248 0248 68F2011E 		.word	503444072
 249 024c FEC20669 		.word	1762050814
 250 0250 5D5762F7 		.word	-144550051
 251 0254 CB676580 		.word	-2140837941
 252 0258 71366C19 		.word	426522225
 253 025c E7066B6E 		.word	1852507879
 254 0260 761BD4FE 		.word	-19653770
 255 0264 E02BD389 		.word	-1982649376
 256 0268 5A7ADA10 		.word	282753626
 257 026c CC4ADD67 		.word	1742555852
 258 0270 6FDFB9F9 		.word	-105259153
 259 0274 F9EFBE8E 		.word	-1900089351
 260 0278 43BEB717 		.word	397917763
 261 027c D58EB060 		.word	1622183637
 262 0280 E8A3D6D6 		.word	-690576408
 263 0284 7E93D1A1 		.word	-1580100738
 264 0288 C4C2D838 		.word	953729732
 265 028c 52F2DF4F 		.word	1340076626
 266 0290 F167BBD1 		.word	-776247311
 267 0294 6757BCA6 		.word	-1497606297
 268 0298 DD06B53F 		.word	1068828381
 269 029c 4B36B248 		.word	1219638859
 270 02a0 DA2B0DD8 		.word	-670225446
 271 02a4 4C1B0AAF 		.word	-1358292148
 272 02a8 F64A0336 		.word	906185462
 273 02ac 607A0441 		.word	1090812512
 274 02b0 C3EF60DF 		.word	-547295293
 275 02b4 55DF67A8 		.word	-1469587627
 276 02b8 EF8E6E31 		.word	829329135
 277 02bc 79BE6946 		.word	1181335161
 278 02c0 8CB361CB 		.word	-882789492
 279 02c4 1A8366BC 		.word	-1134132454
 280 02c8 A0D26F25 		.word	628085408
ARM GAS  C:\Users\binhp\AppData\Local\Temp\ccB6ZBp5.s 			page 8


 281 02cc 36E26852 		.word	1382605366
 282 02d0 95770CCC 		.word	-871598187
 283 02d4 03470BBB 		.word	-1156888829
 284 02d8 B9160222 		.word	570562233
 285 02dc 2F260555 		.word	1426400815
 286 02e0 BE3BBAC5 		.word	-977650754
 287 02e4 280BBDB2 		.word	-1296233688
 288 02e8 925AB42B 		.word	733239954
 289 02ec 046AB35C 		.word	1555261956
 290 02f0 A7FFD7C2 		.word	-1026031705
 291 02f4 31CFD0B5 		.word	-1244606671
 292 02f8 8B9ED92C 		.word	752459403
 293 02fc 1DAEDE5B 		.word	1541320221
 294 0300 B0C2649B 		.word	-1687895376
 295 0304 26F263EC 		.word	-328994266
 296 0308 9CA36A75 		.word	1969922972
 297 030c 0A936D02 		.word	40735498
 298 0310 A906099C 		.word	-1677130071
 299 0314 3F360EEB 		.word	-351390145
 300 0318 85670772 		.word	1913087877
 301 031c 13570005 		.word	83908371
 302 0320 824ABF95 		.word	-1782625662
 303 0324 147AB8E2 		.word	-491226604
 304 0328 AE2BB17B 		.word	2075208622
 305 032c 381BB60C 		.word	213261112
 306 0330 9B8ED292 		.word	-1831694693
 307 0334 0DBED5E5 		.word	-438977011
 308 0338 B7EFDC7C 		.word	2094854071
 309 033c 21DFDB0B 		.word	198958881
 310 0340 D4D2D386 		.word	-2032938284
 311 0344 42E2D4F1 		.word	-237706686
 312 0348 F8B3DD68 		.word	1759359992
 313 034c 6E83DA1F 		.word	534414190
 314 0350 CD16BE81 		.word	-2118248755
 315 0354 5B26B9F6 		.word	-155638181
 316 0358 E177B06F 		.word	1873836001
 317 035c 7747B718 		.word	414664567
 318 0360 E65A0888 		.word	-2012718362
 319 0364 706A0FFF 		.word	-15766928
 320 0368 CA3B0666 		.word	1711684554
 321 036c 5C0B0111 		.word	285281116
 322 0370 FF9E658F 		.word	-1889165569
 323 0374 69AE62F8 		.word	-127750551
 324 0378 D3FF6B61 		.word	1634467795
 325 037c 45CF6C16 		.word	376229701
 326 0380 78E20AA0 		.word	-1609899400
 327 0384 EED20DD7 		.word	-686959890
 328 0388 5483044E 		.word	1308918612
 329 038c C2B30339 		.word	956543938
 330 0390 612667A7 		.word	-1486412191
 331 0394 F71660D0 		.word	-799009033
 332 0398 4D476949 		.word	1231636301
 333 039c DB776E3E 		.word	1047427035
 334 03a0 4A6AD1AE 		.word	-1362007478
 335 03a4 DC5AD6D9 		.word	-640263460
 336 03a8 660BDF40 		.word	1088359270
 337 03ac F03BD837 		.word	936918000
ARM GAS  C:\Users\binhp\AppData\Local\Temp\ccB6ZBp5.s 			page 9


 338 03b0 53AEBCA9 		.word	-1447252397
 339 03b4 C59EBBDE 		.word	-558129467
 340 03b8 7FCFB247 		.word	1202900863
 341 03bc E9FFB530 		.word	817233897
 342 03c0 1CF2BDBD 		.word	-1111625188
 343 03c4 8AC2BACA 		.word	-893730166
 344 03c8 3093B353 		.word	1404277552
 345 03cc A6A3B424 		.word	615818150
 346 03d0 0536D0BA 		.word	-1160759803
 347 03d4 9306D7CD 		.word	-841546093
 348 03d8 2957DE54 		.word	1423857449
 349 03dc BF67D923 		.word	601450431
 350 03e0 2E7A66B3 		.word	-1285129682
 351 03e4 B84A61C4 		.word	-1000256840
 352 03e8 021B685D 		.word	1567103746
 353 03ec 942B6F2A 		.word	711928724
 354 03f0 37BE0BB4 		.word	-1274298825
 355 03f4 A18E0CC3 		.word	-1022587231
 356 03f8 1BDF055A 		.word	1510334235
 357 03fc 8DEF022D 		.word	755167117
 358              		.text
 359              	.Letext0:
 360              		.file 2 "C:/msys64/mingw64/arm-none-eabi/include/machine/_default_types.h"
 361              		.file 3 "C:/msys64/mingw64/arm-none-eabi/include/sys/_stdint.h"
ARM GAS  C:\Users\binhp\AppData\Local\Temp\ccB6ZBp5.s 			page 10


DEFINED SYMBOLS
                            *ABS*:00000000 util.c
C:\Users\binhp\AppData\Local\Temp\ccB6ZBp5.s:19     .text.CalcCrc32:00000000 $t
C:\Users\binhp\AppData\Local\Temp\ccB6ZBp5.s:25     .text.CalcCrc32:00000000 CalcCrc32
C:\Users\binhp\AppData\Local\Temp\ccB6ZBp5.s:93     .text.CalcCrc32:00000028 $d
C:\Users\binhp\AppData\Local\Temp\ccB6ZBp5.s:101    .rodata.crc32Table:00000000 crc32Table
C:\Users\binhp\AppData\Local\Temp\ccB6ZBp5.s:98     .rodata.crc32Table:00000000 $d
                           .group:00000000 wm4.0.82cd861fcffc377458525806b973ac66
                           .group:00000000 wm4._newlib_version.h.4.411db44ea2338a62eca2f0777f81481b
                           .group:00000000 wm4.features.h.33.2eefb68b261e70563a8ac654e712169f
                           .group:00000000 wm4._default_types.h.15.247e5cd201eca3442cbf5404108c4935
                           .group:00000000 wm4._intsup.h.10.48bafbb683905c4daa4565a85aeeb264
                           .group:00000000 wm4._stdint.h.10.c24fa3af3bc1706662bb5593a907e841
                           .group:00000000 wm4.stdint.h.23.d53047a68f4a85177f80b422d52785ed
                           .group:00000000 wm4.stdbool.h.29.c08aa3eec75cf5b9b5003883f43253f0
                           .group:00000000 wm4.newlib.h.7.a37ffbe9e5aff74303f4e60b1cc1c01b
                           .group:00000000 wm4.ieeefp.h.77.fbf6f2f498a71d39a0aaf172d6680419
                           .group:00000000 wm4.config.h.224.10ee1ad185d877c6e334e6581faab44d
                           .group:00000000 wm4._ansi.h.31.de524f58584151836e90d8620a16f8e8
                           .group:00000000 wm4.stdio.h.31.7c0e28c411445f3f9c5b11accf882760
                           .group:00000000 wm4.stddef.h.185.cbb642e1ccd385e8aa504b15cb7fb086
                           .group:00000000 wm4.cdefs.h.49.70fc7af612f78ddcace70fdd90b5623b
                           .group:00000000 wm4.stddef.h.39.6817658cc6bc4c7c8354d2009e4a5777
                           .group:00000000 wm4.stdarg.h.34.3a23a216c0c293b3d2ea2e89281481e6
                           .group:00000000 wm4._types.h.20.dd0d04dca3800a0d2a6129b87f3adbb2
                           .group:00000000 wm4.stddef.h.158.6f8e08a347b1cff664332fa350bfceb3
                           .group:00000000 wm4._types.h.127.3bdfe3ff8ea2d0985b03d9cbe93480e3
                           .group:00000000 wm4.reent.h.18.25503cdc8b7e55dd0d6ea7b3e5af7a03
                           .group:00000000 wm4.lock.h.2.1461d1fff82dffe8bfddc23307f6484f
                           .group:00000000 wm4.reent.h.78.7f0775353a33c852a1479c008f68cd03
                           .group:00000000 wm4.stdio.h.67.0cf8a9c281ab0b348aef5c02e7e48825
                           .group:00000000 wm4.stdio.h.2.4aa87247282eca6c8f36f9de33d8df1a
                           .group:00000000 wm4.stdio.h.87.a1e20d2651f9bfb66e51bfbe849db00a

NO UNDEFINED SYMBOLS
